target datalayout = "e-m:e-p270:32:32-p271:32:32-p272:64:64-i64:64-i128:128-f80:128-n8:16:32:64-S128"
target triple = "x86_64-pc-linux-gnu"

%struct.Vector4 = type { float, float, float, float }

; Function Attrs: nounwind uwtable
define { <2 x float>, <2 x float> } @QuaternionNormalize(<2 x float> %0, <2 x float> %1) #9 {
  %3 = alloca %struct.Vector4, align 4
  %4 = alloca %struct.Vector4, align 4
  %5 = alloca float, align 4
  %6 = alloca float, align 4
  %7 = getelementptr inbounds nuw { <2 x float>, <2 x float> }, ptr %4, i32 0, i32 0
  store <2 x float> %0, ptr %7, align 4
  %8 = getelementptr inbounds nuw { <2 x float>, <2 x float> }, ptr %4, i32 0, i32 1
  store <2 x float> %1, ptr %8, align 4
  call void @llvm.memset.p0.i64(ptr align 4 %3, i8 0, i64 16, i1 false)
  call void @llvm.lifetime.start.p0(i64 4, ptr %5) #16
  %9 = getelementptr inbounds nuw %struct.Vector4, ptr %4, i32 0, i32 0
  %10 = load float, ptr %9, align 4
  %11 = getelementptr inbounds nuw %struct.Vector4, ptr %4, i32 0, i32 0
  %12 = load float, ptr %11, align 4
  %13 = getelementptr inbounds nuw %struct.Vector4, ptr %4, i32 0, i32 1
  %14 = load float, ptr %13, align 4
  %15 = getelementptr inbounds nuw %struct.Vector4, ptr %4, i32 0, i32 1
  %16 = load float, ptr %15, align 4
  %17 = fmul float %14, %16
  %18 = call float @llvm.fmuladd.f32(float %10, float %12, float %17)
  %19 = getelementptr inbounds nuw %struct.Vector4, ptr %4, i32 0, i32 2
  %20 = load float, ptr %19, align 4
  %21 = getelementptr inbounds nuw %struct.Vector4, ptr %4, i32 0, i32 2
  %22 = load float, ptr %21, align 4
  %23 = call float @llvm.fmuladd.f32(float %20, float %22, float %18)
  %24 = getelementptr inbounds nuw %struct.Vector4, ptr %4, i32 0, i32 3
  %25 = load float, ptr %24, align 4
  %26 = getelementptr inbounds nuw %struct.Vector4, ptr %4, i32 0, i32 3
  %27 = load float, ptr %26, align 4
  %28 = call float @llvm.fmuladd.f32(float %25, float %27, float %23)
  %29 = call float @sqrtf(float noundef %28) #16
  store float %29, ptr %5, align 4
  %30 = load float, ptr %5, align 4
  %31 = fcmp oeq float %30, 0.000000e+00
  br i1 %31, label %32, label %33

32:                                               ; preds = %2
  store float 1.000000e+00, ptr %5, align 4
  br label %33

33:                                               ; preds = %32, %2
  call void @llvm.lifetime.start.p0(i64 4, ptr %6) #16
  %34 = load float, ptr %5, align 4
  %35 = fdiv float 1.000000e+00, %34
  store float %35, ptr %6, align 4
  %36 = getelementptr inbounds nuw %struct.Vector4, ptr %4, i32 0, i32 0
  %37 = load float, ptr %36, align 4
  %38 = load float, ptr %6, align 4
  %39 = fmul float %37, %38
  %40 = getelementptr inbounds nuw %struct.Vector4, ptr %3, i32 0, i32 0
  store float %39, ptr %40, align 4
  %41 = getelementptr inbounds nuw %struct.Vector4, ptr %4, i32 0, i32 1
  %42 = load float, ptr %41, align 4
  %43 = load float, ptr %6, align 4
  %44 = fmul float %42, %43
  %45 = getelementptr inbounds nuw %struct.Vector4, ptr %3, i32 0, i32 1
  store float %44, ptr %45, align 4
  %46 = getelementptr inbounds nuw %struct.Vector4, ptr %4, i32 0, i32 2
  %47 = load float, ptr %46, align 4
  %48 = load float, ptr %6, align 4
  %49 = fmul float %47, %48
  %50 = getelementptr inbounds nuw %struct.Vector4, ptr %3, i32 0, i32 2
  store float %49, ptr %50, align 4
  %51 = getelementptr inbounds nuw %struct.Vector4, ptr %4, i32 0, i32 3
  %52 = load float, ptr %51, align 4
  %53 = load float, ptr %6, align 4
  %54 = fmul float %52, %53
  %55 = getelementptr inbounds nuw %struct.Vector4, ptr %3, i32 0, i32 3
  store float %54, ptr %55, align 4
  call void @llvm.lifetime.end.p0(i64 4, ptr %6) #16
  call void @llvm.lifetime.end.p0(i64 4, ptr %5) #16
  %56 = load { <2 x float>, <2 x float> }, ptr %3, align 4
  ret { <2 x float>, <2 x float> } %56
}

; Function Attrs: nounwind uwtable
define { <2 x float>, <2 x float> } @QuaternionAdd(<2 x float> %0, <2 x float> %1, <2 x float> %2, <2 x float> %3) #9 {
  %5 = alloca %struct.Vector4, align 4
  %6 = alloca %struct.Vector4, align 4
  %7 = alloca %struct.Vector4, align 4
  %8 = getelementptr inbounds nuw { <2 x float>, <2 x float> }, ptr %6, i32 0, i32 0
  store <2 x float> %0, ptr %8, align 4
  %9 = getelementptr inbounds nuw { <2 x float>, <2 x float> }, ptr %6, i32 0, i32 1
  store <2 x float> %1, ptr %9, align 4
  %10 = getelementptr inbounds nuw { <2 x float>, <2 x float> }, ptr %7, i32 0, i32 0
  store <2 x float> %2, ptr %10, align 4
  %11 = getelementptr inbounds nuw { <2 x float>, <2 x float> }, ptr %7, i32 0, i32 1
  store <2 x float> %3, ptr %11, align 4
  %12 = getelementptr inbounds nuw %struct.Vector4, ptr %5, i32 0, i32 0
  %13 = getelementptr inbounds nuw %struct.Vector4, ptr %6, i32 0, i32 0
  %14 = load float, ptr %13, align 4
  %15 = getelementptr inbounds nuw %struct.Vector4, ptr %7, i32 0, i32 0
  %16 = load float, ptr %15, align 4
  %17 = fadd float %14, %16
  store float %17, ptr %12, align 4
  %18 = getelementptr inbounds nuw %struct.Vector4, ptr %5, i32 0, i32 1
  %19 = getelementptr inbounds nuw %struct.Vector4, ptr %6, i32 0, i32 1
  %20 = load float, ptr %19, align 4
  %21 = getelementptr inbounds nuw %struct.Vector4, ptr %7, i32 0, i32 1
  %22 = load float, ptr %21, align 4
  %23 = fadd float %20, %22
  store float %23, ptr %18, align 4
  %24 = getelementptr inbounds nuw %struct.Vector4, ptr %5, i32 0, i32 2
  %25 = getelementptr inbounds nuw %struct.Vector4, ptr %6, i32 0, i32 2
  %26 = load float, ptr %25, align 4
  %27 = getelementptr inbounds nuw %struct.Vector4, ptr %7, i32 0, i32 2
  %28 = load float, ptr %27, align 4
  %29 = fadd float %26, %28
  store float %29, ptr %24, align 4
  %30 = getelementptr inbounds nuw %struct.Vector4, ptr %5, i32 0, i32 3
  %31 = getelementptr inbounds nuw %struct.Vector4, ptr %6, i32 0, i32 3
  %32 = load float, ptr %31, align 4
  %33 = getelementptr inbounds nuw %struct.Vector4, ptr %7, i32 0, i32 3
  %34 = load float, ptr %33, align 4
  %35 = fadd float %32, %34
  store float %35, ptr %30, align 4
  %36 = load { <2 x float>, <2 x float> }, ptr %5, align 4
  ret { <2 x float>, <2 x float> } %36
}

; Function Attrs: nounwind uwtable
define { <2 x float>, <2 x float> } @QuaternionScale(<2 x float> %0, <2 x float> %1, float noundef %2) #9 {
  %4 = alloca %struct.Vector4, align 4
  %5 = alloca %struct.Vector4, align 4
  %6 = alloca float, align 4
  %7 = getelementptr inbounds nuw { <2 x float>, <2 x float> }, ptr %5, i32 0, i32 0
  store <2 x float> %0, ptr %7, align 4
  %8 = getelementptr inbounds nuw { <2 x float>, <2 x float> }, ptr %5, i32 0, i32 1
  store <2 x float> %1, ptr %8, align 4
  store float %2, ptr %6, align 4
  call void @llvm.memset.p0.i64(ptr align 4 %4, i8 0, i64 16, i1 false)
  %9 = getelementptr inbounds nuw %struct.Vector4, ptr %5, i32 0, i32 0
  %10 = load float, ptr %9, align 4
  %11 = load float, ptr %6, align 4
  %12 = fmul float %10, %11
  %13 = getelementptr inbounds nuw %struct.Vector4, ptr %4, i32 0, i32 0
  store float %12, ptr %13, align 4
  %14 = getelementptr inbounds nuw %struct.Vector4, ptr %5, i32 0, i32 1
  %15 = load float, ptr %14, align 4
  %16 = load float, ptr %6, align 4
  %17 = fmul float %15, %16
  %18 = getelementptr inbounds nuw %struct.Vector4, ptr %4, i32 0, i32 1
  store float %17, ptr %18, align 4
  %19 = getelementptr inbounds nuw %struct.Vector4, ptr %5, i32 0, i32 2
  %20 = load float, ptr %19, align 4
  %21 = load float, ptr %6, align 4
  %22 = fmul float %20, %21
  %23 = getelementptr inbounds nuw %struct.Vector4, ptr %4, i32 0, i32 2
  store float %22, ptr %23, align 4
  %24 = getelementptr inbounds nuw %struct.Vector4, ptr %5, i32 0, i32 3
  %25 = load float, ptr %24, align 4
  %26 = load float, ptr %6, align 4
  %27 = fmul float %25, %26
  %28 = getelementptr inbounds nuw %struct.Vector4, ptr %4, i32 0, i32 3
  store float %27, ptr %28, align 4
  %29 = load { <2 x float>, <2 x float> }, ptr %4, align 4
  ret { <2 x float>, <2 x float> } %29
}

; Function Attrs: nounwind uwtable
define { <2 x float>, <2 x float> } @QuaternionCubicHermiteSpline(<2 x float> %0, <2 x float> %1, <2 x float> %2, <2 x float> %3, <2 x float> %4, <2 x float> %5, <2 x float> %6, <2 x float> %7, float noundef %8) #9 {
  %10 = alloca %struct.Vector4, align 4
  %11 = alloca %struct.Vector4, align 4
  %12 = alloca %struct.Vector4, align 4
  %13 = alloca %struct.Vector4, align 4
  %14 = alloca %struct.Vector4, align 4
  %15 = alloca float, align 4
  %16 = alloca float, align 4
  %17 = alloca float, align 4
  %18 = alloca float, align 4
  %19 = alloca float, align 4
  %20 = alloca float, align 4
  %21 = alloca float, align 4
  %22 = alloca %struct.Vector4, align 4
  %23 = alloca %struct.Vector4, align 4
  %24 = alloca %struct.Vector4, align 4
  %25 = alloca %struct.Vector4, align 4
  %26 = alloca %struct.Vector4, align 4
  %27 = alloca %struct.Vector4, align 4
  %28 = alloca %struct.Vector4, align 4
  %29 = alloca %struct.Vector4, align 4
  %30 = getelementptr inbounds nuw { <2 x float>, <2 x float> }, ptr %11, i32 0, i32 0
  store <2 x float> %0, ptr %30, align 4
  %31 = getelementptr inbounds nuw { <2 x float>, <2 x float> }, ptr %11, i32 0, i32 1
  store <2 x float> %1, ptr %31, align 4
  %32 = getelementptr inbounds nuw { <2 x float>, <2 x float> }, ptr %12, i32 0, i32 0
  store <2 x float> %2, ptr %32, align 4
  %33 = getelementptr inbounds nuw { <2 x float>, <2 x float> }, ptr %12, i32 0, i32 1
  store <2 x float> %3, ptr %33, align 4
  %34 = getelementptr inbounds nuw { <2 x float>, <2 x float> }, ptr %13, i32 0, i32 0
  store <2 x float> %4, ptr %34, align 4
  %35 = getelementptr inbounds nuw { <2 x float>, <2 x float> }, ptr %13, i32 0, i32 1
  store <2 x float> %5, ptr %35, align 4
  %36 = getelementptr inbounds nuw { <2 x float>, <2 x float> }, ptr %14, i32 0, i32 0
  store <2 x float> %6, ptr %36, align 4
  %37 = getelementptr inbounds nuw { <2 x float>, <2 x float> }, ptr %14, i32 0, i32 1
  store <2 x float> %7, ptr %37, align 4
  store float %8, ptr %15, align 4
  call void @llvm.lifetime.start.p0(i64 4, ptr %16) #16
  %38 = load float, ptr %15, align 4
  %39 = load float, ptr %15, align 4
  %40 = fmul float %38, %39
  store float %40, ptr %16, align 4
  call void @llvm.lifetime.start.p0(i64 4, ptr %17) #16
  %41 = load float, ptr %16, align 4
  %42 = load float, ptr %15, align 4
  %43 = fmul float %41, %42
  store float %43, ptr %17, align 4
  call void @llvm.lifetime.start.p0(i64 4, ptr %18) #16
  %44 = load float, ptr %17, align 4
  %45 = load float, ptr %16, align 4
  %46 = fmul float 3.000000e+00, %45
  %47 = fneg float %46
  %48 = call float @llvm.fmuladd.f32(float 2.000000e+00, float %44, float %47)
  %49 = fadd float %48, 1.000000e+00
  store float %49, ptr %18, align 4
  call void @llvm.lifetime.start.p0(i64 4, ptr %19) #16
  %50 = load float, ptr %17, align 4
  %51 = load float, ptr %16, align 4
  %52 = call float @llvm.fmuladd.f32(float -2.000000e+00, float %51, float %50)
  %53 = load float, ptr %15, align 4
  %54 = fadd float %52, %53
  store float %54, ptr %19, align 4
  call void @llvm.lifetime.start.p0(i64 4, ptr %20) #16
  %55 = load float, ptr %17, align 4
  %56 = load float, ptr %16, align 4
  %57 = fmul float 3.000000e+00, %56
  %58 = call float @llvm.fmuladd.f32(float -2.000000e+00, float %55, float %57)
  store float %58, ptr %20, align 4
  call void @llvm.lifetime.start.p0(i64 4, ptr %21) #16
  %59 = load float, ptr %17, align 4
  %60 = load float, ptr %16, align 4
  %61 = fsub float %59, %60
  store float %61, ptr %21, align 4
  call void @llvm.lifetime.start.p0(i64 16, ptr %22) #16
  %62 = load float, ptr %18, align 4
  %63 = getelementptr inbounds nuw { <2 x float>, <2 x float> }, ptr %11, i32 0, i32 0
  %64 = load <2 x float>, ptr %63, align 4
  %65 = getelementptr inbounds nuw { <2 x float>, <2 x float> }, ptr %11, i32 0, i32 1
  %66 = load <2 x float>, ptr %65, align 4
  %67 = call { <2 x float>, <2 x float> } @QuaternionScale(<2 x float> %64, <2 x float> %66, float noundef %62)
  %68 = getelementptr inbounds nuw { <2 x float>, <2 x float> }, ptr %22, i32 0, i32 0
  %69 = extractvalue { <2 x float>, <2 x float> } %67, 0
  store <2 x float> %69, ptr %68, align 4
  %70 = getelementptr inbounds nuw { <2 x float>, <2 x float> }, ptr %22, i32 0, i32 1
  %71 = extractvalue { <2 x float>, <2 x float> } %67, 1
  store <2 x float> %71, ptr %70, align 4
  call void @llvm.lifetime.start.p0(i64 16, ptr %23) #16
  %72 = load float, ptr %19, align 4
  %73 = getelementptr inbounds nuw { <2 x float>, <2 x float> }, ptr %12, i32 0, i32 0
  %74 = load <2 x float>, ptr %73, align 4
  %75 = getelementptr inbounds nuw { <2 x float>, <2 x float> }, ptr %12, i32 0, i32 1
  %76 = load <2 x float>, ptr %75, align 4
  %77 = call { <2 x float>, <2 x float> } @QuaternionScale(<2 x float> %74, <2 x float> %76, float noundef %72)
  %78 = getelementptr inbounds nuw { <2 x float>, <2 x float> }, ptr %23, i32 0, i32 0
  %79 = extractvalue { <2 x float>, <2 x float> } %77, 0
  store <2 x float> %79, ptr %78, align 4
  %80 = getelementptr inbounds nuw { <2 x float>, <2 x float> }, ptr %23, i32 0, i32 1
  %81 = extractvalue { <2 x float>, <2 x float> } %77, 1
  store <2 x float> %81, ptr %80, align 4
  call void @llvm.lifetime.start.p0(i64 16, ptr %24) #16
  %82 = load float, ptr %20, align 4
  %83 = getelementptr inbounds nuw { <2 x float>, <2 x float> }, ptr %13, i32 0, i32 0
  %84 = load <2 x float>, ptr %83, align 4
  %85 = getelementptr inbounds nuw { <2 x float>, <2 x float> }, ptr %13, i32 0, i32 1
  %86 = load <2 x float>, ptr %85, align 4
  %87 = call { <2 x float>, <2 x float> } @QuaternionScale(<2 x float> %84, <2 x float> %86, float noundef %82)
  %88 = getelementptr inbounds nuw { <2 x float>, <2 x float> }, ptr %24, i32 0, i32 0
  %89 = extractvalue { <2 x float>, <2 x float> } %87, 0
  store <2 x float> %89, ptr %88, align 4
  %90 = getelementptr inbounds nuw { <2 x float>, <2 x float> }, ptr %24, i32 0, i32 1
  %91 = extractvalue { <2 x float>, <2 x float> } %87, 1
  store <2 x float> %91, ptr %90, align 4
  call void @llvm.lifetime.start.p0(i64 16, ptr %25) #16
  %92 = load float, ptr %21, align 4
  %93 = getelementptr inbounds nuw { <2 x float>, <2 x float> }, ptr %14, i32 0, i32 0
  %94 = load <2 x float>, ptr %93, align 4
  %95 = getelementptr inbounds nuw { <2 x float>, <2 x float> }, ptr %14, i32 0, i32 1
  %96 = load <2 x float>, ptr %95, align 4
  %97 = call { <2 x float>, <2 x float> } @QuaternionScale(<2 x float> %94, <2 x float> %96, float noundef %92)
  %98 = getelementptr inbounds nuw { <2 x float>, <2 x float> }, ptr %25, i32 0, i32 0
  %99 = extractvalue { <2 x float>, <2 x float> } %97, 0
  store <2 x float> %99, ptr %98, align 4
  %100 = getelementptr inbounds nuw { <2 x float>, <2 x float> }, ptr %25, i32 0, i32 1
  %101 = extractvalue { <2 x float>, <2 x float> } %97, 1
  store <2 x float> %101, ptr %100, align 4
  call void @llvm.memset.p0.i64(ptr align 4 %10, i8 0, i64 16, i1 false)
  call void @llvm.lifetime.start.p0(i64 16, ptr %26) #16
  %102 = getelementptr inbounds nuw { <2 x float>, <2 x float> }, ptr %22, i32 0, i32 0
  %103 = load <2 x float>, ptr %102, align 4
  %104 = getelementptr inbounds nuw { <2 x float>, <2 x float> }, ptr %22, i32 0, i32 1
  %105 = load <2 x float>, ptr %104, align 4
  %106 = getelementptr inbounds nuw { <2 x float>, <2 x float> }, ptr %23, i32 0, i32 0
  %107 = load <2 x float>, ptr %106, align 4
  %108 = getelementptr inbounds nuw { <2 x float>, <2 x float> }, ptr %23, i32 0, i32 1
  %109 = load <2 x float>, ptr %108, align 4
  %110 = call { <2 x float>, <2 x float> } @QuaternionAdd(<2 x float> %103, <2 x float> %105, <2 x float> %107, <2 x float> %109)
  %111 = getelementptr inbounds nuw { <2 x float>, <2 x float> }, ptr %26, i32 0, i32 0
  %112 = extractvalue { <2 x float>, <2 x float> } %110, 0
  store <2 x float> %112, ptr %111, align 4
  %113 = getelementptr inbounds nuw { <2 x float>, <2 x float> }, ptr %26, i32 0, i32 1
  %114 = extractvalue { <2 x float>, <2 x float> } %110, 1
  store <2 x float> %114, ptr %113, align 4
  call void @llvm.memcpy.p0.p0.i64(ptr align 4 %10, ptr align 4 %26, i64 16, i1 false)
  call void @llvm.lifetime.end.p0(i64 16, ptr %26) #16
  call void @llvm.lifetime.start.p0(i64 16, ptr %27) #16
  %115 = getelementptr inbounds nuw { <2 x float>, <2 x float> }, ptr %10, i32 0, i32 0
  %116 = load <2 x float>, ptr %115, align 4
  %117 = getelementptr inbounds nuw { <2 x float>, <2 x float> }, ptr %10, i32 0, i32 1
  %118 = load <2 x float>, ptr %117, align 4
  %119 = getelementptr inbounds nuw { <2 x float>, <2 x float> }, ptr %24, i32 0, i32 0
  %120 = load <2 x float>, ptr %119, align 4
  %121 = getelementptr inbounds nuw { <2 x float>, <2 x float> }, ptr %24, i32 0, i32 1
  %122 = load <2 x float>, ptr %121, align 4
  %123 = call { <2 x float>, <2 x float> } @QuaternionAdd(<2 x float> %116, <2 x float> %118, <2 x float> %120, <2 x float> %122)
  %124 = getelementptr inbounds nuw { <2 x float>, <2 x float> }, ptr %27, i32 0, i32 0
  %125 = extractvalue { <2 x float>, <2 x float> } %123, 0
  store <2 x float> %125, ptr %124, align 4
  %126 = getelementptr inbounds nuw { <2 x float>, <2 x float> }, ptr %27, i32 0, i32 1
  %127 = extractvalue { <2 x float>, <2 x float> } %123, 1
  store <2 x float> %127, ptr %126, align 4
  call void @llvm.memcpy.p0.p0.i64(ptr align 4 %10, ptr align 4 %27, i64 16, i1 false)
  call void @llvm.lifetime.end.p0(i64 16, ptr %27) #16
  call void @llvm.lifetime.start.p0(i64 16, ptr %28) #16
  %128 = getelementptr inbounds nuw { <2 x float>, <2 x float> }, ptr %10, i32 0, i32 0
  %129 = load <2 x float>, ptr %128, align 4
  %130 = getelementptr inbounds nuw { <2 x float>, <2 x float> }, ptr %10, i32 0, i32 1
  %131 = load <2 x float>, ptr %130, align 4
  %132 = getelementptr inbounds nuw { <2 x float>, <2 x float> }, ptr %25, i32 0, i32 0
  %133 = load <2 x float>, ptr %132, align 4
  %134 = getelementptr inbounds nuw { <2 x float>, <2 x float> }, ptr %25, i32 0, i32 1
  %135 = load <2 x float>, ptr %134, align 4
  %136 = call { <2 x float>, <2 x float> } @QuaternionAdd(<2 x float> %129, <2 x float> %131, <2 x float> %133, <2 x float> %135)
  %137 = getelementptr inbounds nuw { <2 x float>, <2 x float> }, ptr %28, i32 0, i32 0
  %138 = extractvalue { <2 x float>, <2 x float> } %136, 0
  store <2 x float> %138, ptr %137, align 4
  %139 = getelementptr inbounds nuw { <2 x float>, <2 x float> }, ptr %28, i32 0, i32 1
  %140 = extractvalue { <2 x float>, <2 x float> } %136, 1
  store <2 x float> %140, ptr %139, align 4
  call void @llvm.memcpy.p0.p0.i64(ptr align 4 %10, ptr align 4 %28, i64 16, i1 false)
  call void @llvm.lifetime.end.p0(i64 16, ptr %28) #16
  call void @llvm.lifetime.start.p0(i64 16, ptr %29) #16
  %141 = getelementptr inbounds nuw { <2 x float>, <2 x float> }, ptr %10, i32 0, i32 0
  %142 = load <2 x float>, ptr %141, align 4
  %143 = getelementptr inbounds nuw { <2 x float>, <2 x float> }, ptr %10, i32 0, i32 1
  %144 = load <2 x float>, ptr %143, align 4
  %145 = call { <2 x float>, <2 x float> } @QuaternionNormalize(<2 x float> %142, <2 x float> %144)
  %146 = getelementptr inbounds nuw { <2 x float>, <2 x float> }, ptr %29, i32 0, i32 0
  %147 = extractvalue { <2 x float>, <2 x float> } %145, 0
  store <2 x float> %147, ptr %146, align 4
  %148 = getelementptr inbounds nuw { <2 x float>, <2 x float> }, ptr %29, i32 0, i32 1
  %149 = extractvalue { <2 x float>, <2 x float> } %145, 1
  store <2 x float> %149, ptr %148, align 4
  call void @llvm.memcpy.p0.p0.i64(ptr align 4 %10, ptr align 4 %29, i64 16, i1 false)
  call void @llvm.lifetime.end.p0(i64 16, ptr %29) #16
  call void @llvm.lifetime.end.p0(i64 16, ptr %25) #16
  call void @llvm.lifetime.end.p0(i64 16, ptr %24) #16
  call void @llvm.lifetime.end.p0(i64 16, ptr %23) #16
  call void @llvm.lifetime.end.p0(i64 16, ptr %22) #16
  call void @llvm.lifetime.end.p0(i64 4, ptr %21) #16
  call void @llvm.lifetime.end.p0(i64 4, ptr %20) #16
  call void @llvm.lifetime.end.p0(i64 4, ptr %19) #16
  call void @llvm.lifetime.end.p0(i64 4, ptr %18) #16
  call void @llvm.lifetime.end.p0(i64 4, ptr %17) #16
  call void @llvm.lifetime.end.p0(i64 4, ptr %16) #16
  %150 = load { <2 x float>, <2 x float> }, ptr %10, align 4
  ret { <2 x float>, <2 x float> } %150
}