; Function Attrs: mustprogress nofree norecurse nosync nounwind willreturn memory(none) uwtable
define { <2 x float>, <2 x float> } @QuaternionCubicHermiteSpline(<2 x float> %0, <2 x float> %1, <2 x float> %2, <2 x float> %3, <2 x float> %4, <2 x float> %5, <2 x float> %6, <2 x float> %7, float noundef %8) local_unnamed_addr #17 {
  %10 = fmul float %8, %8
  %11 = fmul float %8, %10
  %12 = fmul float %10, 3.000000e+00
  %13 = fneg float %12
  %14 = tail call float @llvm.fmuladd.f32(float %11, float 2.000000e+00, float %13)
  %15 = fadd float %14, 1.000000e+00
  %16 = tail call float @llvm.fmuladd.f32(float %10, float -2.000000e+00, float %11)
  %17 = fadd float %8, %16
  %18 = tail call float @llvm.fmuladd.f32(float %11, float -2.000000e+00, float %12)
  %19 = fsub float %11, %10
  %.sroa.0.0.vec.extract.i = extractelement <2 x float> %0, i64 0
  %20 = fmul float %.sroa.0.0.vec.extract.i, %15
  %.sroa.0.4.vec.extract.i = extractelement <2 x float> %0, i64 1
  %21 = fmul float %.sroa.0.4.vec.extract.i, %15
  %.sroa.3.8.vec.extract.i = extractelement <2 x float> %1, i64 0
  %22 = fmul float %.sroa.3.8.vec.extract.i, %15
  %.sroa.3.12.vec.extract.i = extractelement <2 x float> %1, i64 1
  %23 = fmul float %.sroa.3.12.vec.extract.i, %15
  %.sroa.0.0.vec.extract.i45 = extractelement <2 x float> %2, i64 0
  %24 = fmul float %.sroa.0.0.vec.extract.i45, %17
  %.sroa.0.4.vec.extract.i47 = extractelement <2 x float> %2, i64 1
  %25 = fmul float %.sroa.0.4.vec.extract.i47, %17
  %.sroa.3.8.vec.extract.i49 = extractelement <2 x float> %3, i64 0
  %26 = fmul float %.sroa.3.8.vec.extract.i49, %17
  %.sroa.3.12.vec.extract.i51 = extractelement <2 x float> %3, i64 1
  %27 = fmul float %.sroa.3.12.vec.extract.i51, %17
  %.sroa.0.0.vec.extract.i55 = extractelement <2 x float> %4, i64 0
  %28 = fmul float %.sroa.0.0.vec.extract.i55, %18
  %.sroa.0.4.vec.extract.i57 = extractelement <2 x float> %4, i64 1
  %29 = fmul float %.sroa.0.4.vec.extract.i57, %18
  %.sroa.3.8.vec.extract.i59 = extractelement <2 x float> %5, i64 0
  %30 = fmul float %.sroa.3.8.vec.extract.i59, %18
  %.sroa.3.12.vec.extract.i61 = extractelement <2 x float> %5, i64 1
  %31 = fmul float %.sroa.3.12.vec.extract.i61, %18
  %.sroa.0.0.vec.extract.i65 = extractelement <2 x float> %6, i64 0
  %32 = fmul float %.sroa.0.0.vec.extract.i65, %19
  %.sroa.0.4.vec.extract.i67 = extractelement <2 x float> %6, i64 1
  %33 = fmul float %.sroa.0.4.vec.extract.i67, %19
  %.sroa.3.8.vec.extract.i69 = extractelement <2 x float> %7, i64 0
  %34 = fmul float %.sroa.3.8.vec.extract.i69, %19
  %.sroa.3.12.vec.extract.i71 = extractelement <2 x float> %7, i64 1
  %35 = fmul float %.sroa.3.12.vec.extract.i71, %19
  %36 = fadd float %20, %24
  %37 = fadd float %21, %25
  %38 = fadd float %22, %26
  %39 = fadd float %23, %27
  %40 = fadd float %28, %36
  %41 = fadd float %29, %37
  %42 = fadd float %30, %38
  %43 = fadd float %31, %39
  %44 = fadd float %32, %40
  %45 = fadd float %33, %41
  %46 = fadd float %34, %42
  %47 = fadd float %35, %43
  %48 = fmul float %45, %45
  %49 = tail call float @llvm.fmuladd.f32(float %44, float %44, float %48)
  %50 = tail call float @llvm.fmuladd.f32(float %46, float %46, float %49)
  %51 = tail call float @llvm.fmuladd.f32(float %47, float %47, float %50)
  %sqrt.i = tail call float @llvm.sqrt.f32(float %51)
  %52 = fcmp oeq float %51, 0.000000e+00
  %53 = fdiv float 1.000000e+00, %sqrt.i
  %54 = select i1 %52, float 1.000000e+00, float %53
  %55 = fmul float %44, %54
  %.sroa.022.0.vec.insert.i = insertelement <2 x float> poison, float %55, i64 0
  %56 = fmul float %45, %54
  %.sroa.022.4.vec.insert.i = insertelement <2 x float> %.sroa.022.0.vec.insert.i, float %56, i64 1
  %57 = fmul float %46, %54
  %.sroa.4.8.vec.insert.i111 = insertelement <2 x float> poison, float %57, i64 0
  %58 = fmul float %47, %54
  %.sroa.4.12.vec.insert.i112 = insertelement <2 x float> %.sroa.4.8.vec.insert.i111, float %58, i64 1
  %.fca.0.insert.i113 = insertvalue { <2 x float>, <2 x float> } poison, <2 x float> %.sroa.022.4.vec.insert.i, 0
  %.fca.1.insert.i114 = insertvalue { <2 x float>, <2 x float> } %.fca.0.insert.i113, <2 x float> %.sroa.4.12.vec.insert.i112, 1
  ret { <2 x float>, <2 x float> } %.fca.1.insert.i114
}